; Function Attrs: mustprogress nounwind uwtable
define hidden noundef i64 @_ZNK10SerialHeap8capacityEv(ptr nocapture noundef nonnull readonly align 8 dereferenceable(192) %0) unnamed_addr #0 align 2 {
  %2 = getelementptr inbounds i8, ptr %0, i64 104
  %3 = load ptr, ptr %2, align 8
  %4 = load ptr, ptr %3, align 8
  %5 = load ptr, ptr %4, align 8
  %6 = tail call noundef i64 %5(ptr noundef nonnull align 8 dereferenceable(744) %3) #16
  %7 = getelementptr inbounds i8, ptr %0, i64 112
  %8 = load ptr, ptr %7, align 8
  %9 = load ptr, ptr %8, align 8
  %10 = load ptr, ptr %9, align 8
  %11 = tail call noundef i64 %10(ptr noundef nonnull align 8 dereferenceable(248) %8) #16
  %12 = add i64 %11, %6
  ret i64 %12
}